target datalayout = "e-m:e-p270:32:32-p271:32:32-p272:64:64-i64:64-i128:128-f80:128-n8:16:32:64-S128"
target triple = "x86_64-pc-linux-gnu"

%class.QVariant = type { %"struct.QVariant::Private" }
%"struct.QVariant::Private" = type <{ %"union.QVariant::Private::Data", i32, [4 x i8] }>
%"union.QVariant::Private::Data" = type { i64 }

@_ZTV17MLRenderingAction = external unnamed_addr constant { [19 x ptr] }, align 8

; Function Attrs: mustprogress uwtable
define void @_ZN17MLRenderingAction9setMeshIdEi(ptr noundef nonnull align 8 dereferenceable(16) %0, i32 noundef %1) #5 align 2 personality ptr @__gxx_personality_v0 {
  %3 = alloca ptr, align 8
  %4 = alloca i32, align 4
  %5 = alloca %class.QVariant, align 8
  %6 = alloca ptr, align 8
  %7 = alloca i32, align 4
  store ptr %0, ptr %3, align 8
  store i32 %1, ptr %4, align 4
  %8 = load ptr, ptr %3, align 8
  %9 = load i32, ptr %4, align 4
  call void @_ZN8QVariantC1Ei(ptr noundef nonnull align 8 dereferenceable(16) %5, i32 noundef %9)
  invoke void @_ZN7QAction7setDataERK8QVariant(ptr noundef nonnull align 8 dereferenceable(16) %8, ptr noundef nonnull align 8 dereferenceable(16) %5)
          to label %10 unwind label %11

10:                                               ; preds = %2
  call void @_ZN8QVariantD1Ev(ptr noundef nonnull align 8 dereferenceable(16) %5) #3
  ret void

11:                                               ; preds = %2
  %12 = landingpad { ptr, i32 }
          cleanup
  %13 = extractvalue { ptr, i32 } %12, 0
  store ptr %13, ptr %6, align 8
  %14 = extractvalue { ptr, i32 } %12, 1
  store i32 %14, ptr %7, align 4
  call void @_ZN8QVariantD1Ev(ptr noundef nonnull align 8 dereferenceable(16) %5) #3
  br label %15

15:                                               ; preds = %11
  %16 = load ptr, ptr %6, align 8
  %17 = load i32, ptr %7, align 4
  %18 = insertvalue { ptr, i32 } poison, ptr %16, 0
  %19 = insertvalue { ptr, i32 } %18, i32 %17, 1
  resume { ptr, i32 } %19
}

; Function Attrs: mustprogress uwtable
define void @_ZN17MLRenderingActionC2EP7QObject(ptr noundef nonnull align 8 dereferenceable(16) %0, ptr noundef %1) unnamed_addr #5 align 2 personality ptr @__gxx_personality_v0 {
  %3 = alloca ptr, align 8
  %4 = alloca ptr, align 8
  %5 = alloca ptr, align 8
  %6 = alloca i32, align 4
  store ptr %0, ptr %3, align 8
  store ptr %1, ptr %4, align 8
  %7 = load ptr, ptr %3, align 8
  %8 = load ptr, ptr %4, align 8
  call void @_ZN7QActionC2EP7QObject(ptr noundef nonnull align 8 dereferenceable(16) %7, ptr noundef %8)
  store ptr getelementptr inbounds ({ [19 x ptr] }, ptr @_ZTV17MLRenderingAction, i32 0, i32 0, i32 2), ptr %7, align 8
  invoke void @_ZN7QAction12setCheckableEb(ptr noundef nonnull align 8 dereferenceable(16) %7, i1 noundef zeroext true)
          to label %9 unwind label %12

9:                                                ; preds = %2
  invoke void @_ZN7QAction10setCheckedEb(ptr noundef nonnull align 8 dereferenceable(16) %7, i1 noundef zeroext false)
          to label %10 unwind label %12

10:                                               ; preds = %9
  invoke void @_ZN17MLRenderingAction9setMeshIdEi(ptr noundef nonnull align 8 dereferenceable(16) %7, i32 noundef -1)
          to label %11 unwind label %12

11:                                               ; preds = %10
  ret void

12:                                               ; preds = %10, %9, %2
  %13 = landingpad { ptr, i32 }
          cleanup
  %14 = extractvalue { ptr, i32 } %13, 0
  store ptr %14, ptr %5, align 8
  %15 = extractvalue { ptr, i32 } %13, 1
  store i32 %15, ptr %6, align 4
  call void @_ZN7QActionD2Ev(ptr noundef nonnull align 8 dereferenceable(16) %7) #3
  br label %16

16:                                               ; preds = %12
  %17 = load ptr, ptr %5, align 8
  %18 = load i32, ptr %6, align 4
  %19 = insertvalue { ptr, i32 } poison, ptr %17, 0
  %20 = insertvalue { ptr, i32 } %19, i32 %18, 1
  resume { ptr, i32 } %20
}