; Function Attrs: mustprogress uwtable
define void @_ZN17MLRenderingActionC2EP7QObject(ptr noundef nonnull align 8 dereferenceable(16) %0, ptr noundef %1) unnamed_addr #9 align 2 personality ptr @__gxx_personality_v0 {
  %3 = alloca %class.QVariant, align 8
  tail call void @_ZN7QActionC2EP7QObject(ptr noundef nonnull align 8 dereferenceable(16) %0, ptr noundef %1)
  store ptr getelementptr inbounds ({ [19 x ptr] }, ptr @_ZTV17MLRenderingAction, i64 0, i32 0, i64 2), ptr %0, align 8
  invoke void @_ZN7QAction12setCheckableEb(ptr noundef nonnull align 8 dereferenceable(16) %0, i1 noundef zeroext true)
          to label %4 unwind label %9

4:                                                ; preds = %2
  invoke void @_ZN7QAction10setCheckedEb(ptr noundef nonnull align 8 dereferenceable(16) %0, i1 noundef zeroext false)
          to label %5 unwind label %9

5:                                                ; preds = %4
  call void @llvm.lifetime.start.p0(i64 16, ptr nonnull %3)
  invoke void @_ZN8QVariantC1Ei(ptr noundef nonnull align 8 dereferenceable(16) %3, i32 noundef -1)
          to label %.noexc unwind label %9

.noexc:                                           ; preds = %5
  invoke void @_ZN7QAction7setDataERK8QVariant(ptr noundef nonnull align 8 dereferenceable(16) %0, ptr noundef nonnull align 8 dereferenceable(16) %3)
          to label %8 unwind label %6

6:                                                ; preds = %.noexc
  %7 = landingpad { ptr, i32 }
          cleanup
  call void @_ZN8QVariantD1Ev(ptr noundef nonnull align 8 dereferenceable(16) %3) #21
  br label %.body

8:                                                ; preds = %.noexc
  call void @_ZN8QVariantD1Ev(ptr noundef nonnull align 8 dereferenceable(16) %3) #21
  call void @llvm.lifetime.end.p0(i64 16, ptr nonnull %3)
  ret void

9:                                                ; preds = %5, %4, %2
  %10 = landingpad { ptr, i32 }
          cleanup
  br label %.body

.body:                                            ; preds = %6, %9
  %eh.lpad-body = phi { ptr, i32 } [ %10, %9 ], [ %7, %6 ]
  call void @_ZN7QActionD2Ev(ptr noundef nonnull align 8 dereferenceable(16) %0) #21
  resume { ptr, i32 } %eh.lpad-body
}